#include <math.h>
#include <stdio.h>
#include <stdlib.h>
#include <string.h>
#define LEN 100
#define ASCII 100
#define MAX_N 100
#define MAX_N 100
#define L 100
#define MAX 100
#define ASC 100
#define null 0
#define Len 100
#define M 100
#define SUM 100
#define NUMBER 100
#define SIZE 100
#define N 100
#define Max 100
#define X 100
#define Y 100
#define A 100
#define MAXN 100
#define MAXSIZE 100

int pro(char pr)
{
     return toupper(pr) - 'A';
}

void put_names(int name[26][100], int books[26], int booknum);
int max(int books[26]);


main()
{
      int n, i, name[26][100],  books[26] = {0}, max_ptr;
      int booknum;
      
      scanf("%d", &n);
      
      for(i = 1;i <= n;i ++)
      {
            scanf("%d", &booknum);
            put_names(name, books, booknum);
            
      }
      
      max_ptr = max(books);
      printf("%c\n", max_ptr + 'A');
      printf("%d\n", books[max_ptr]);
      
      for(i = 1;i <= books[max_ptr];i ++)
      {
            printf("%d\n", name[max_ptr][i]);
      }
}

void put_names(int name[26][100], int books[26], int booknum)
{
     char ch;
     int ptr;
     int counter = 0;
     while(1)
     {
             ch = getchar();
             if(ch != ' ') break;
     }

     

     

     while(1)
     {

               
               ptr = pro(ch);
               books[ptr] ++;
               //printf("|%c, %d|---", ch, books[ptr]);
               

               name[ptr][books[ptr]] = booknum;
               ch = getchar();
               if(ch == '\n') break;

     }
     //printf("[%d]\n", counter);
}

int max(int books[26])
{
    int i;
    int ptr;
    ptr = books[0];
    for(i = 0;i <= 25;i ++)
    {
          if(books[i] > books[ptr]) ptr = i;
    }
    return ptr;
}

