; ModuleID = '2/68.c'
source_filename = "2/68.c"
target datalayout = "e-m:e-p270:32:32-p271:32:32-p272:64:64-i64:64-f80:128-n8:16:32:64-S128"
target triple = "x86_64-pc-linux-gnu"

@.str = private unnamed_addr constant [3 x i8] c"%d\00", align 1
@.str.1 = private unnamed_addr constant [4 x i8] c"%c\0A\00", align 1
@.str.2 = private unnamed_addr constant [4 x i8] c"%d\0A\00", align 1

; Function Attrs: noinline nounwind uwtable
define dso_local i32 @pro(i8 signext %0) #0 {
  %2 = alloca i8, align 1
  store i8 %0, i8* %2, align 1
  %3 = load i8, i8* %2, align 1
  %4 = sext i8 %3 to i32
  %5 = call i32 @toupper(i32 %4) #4
  %6 = sub nsw i32 %5, 65
  ret i32 %6
}

; Function Attrs: nounwind readonly
declare dso_local i32 @toupper(i32) #1

; Function Attrs: noinline nounwind uwtable
define dso_local i32 @main() #0 {
  %1 = alloca i32, align 4
  %2 = alloca i32, align 4
  %3 = alloca i32, align 4
  %4 = alloca [26 x [100 x i32]], align 16
  %5 = alloca [26 x i32], align 16
  %6 = alloca i32, align 4
  %7 = alloca i32, align 4
  store i32 0, i32* %1, align 4
  %8 = bitcast [26 x i32]* %5 to i8*
  call void @llvm.memset.p0i8.i64(i8* align 16 %8, i8 0, i64 104, i1 false)
  %9 = call i32 (i8*, ...) @__isoc99_scanf(i8* getelementptr inbounds ([3 x i8], [3 x i8]* @.str, i64 0, i64 0), i32* %2)
  store i32 1, i32* %3, align 4
  br label %10

10:                                               ; preds = %19, %0
  %11 = load i32, i32* %3, align 4
  %12 = load i32, i32* %2, align 4
  %13 = icmp sle i32 %11, %12
  br i1 %13, label %14, label %22

14:                                               ; preds = %10
  %15 = call i32 (i8*, ...) @__isoc99_scanf(i8* getelementptr inbounds ([3 x i8], [3 x i8]* @.str, i64 0, i64 0), i32* %7)
  %16 = getelementptr inbounds [26 x [100 x i32]], [26 x [100 x i32]]* %4, i64 0, i64 0
  %17 = getelementptr inbounds [26 x i32], [26 x i32]* %5, i64 0, i64 0
  %18 = load i32, i32* %7, align 4
  call void @put_names([100 x i32]* %16, i32* %17, i32 %18)
  br label %19

19:                                               ; preds = %14
  %20 = load i32, i32* %3, align 4
  %21 = add nsw i32 %20, 1
  store i32 %21, i32* %3, align 4
  br label %10

22:                                               ; preds = %10
  %23 = getelementptr inbounds [26 x i32], [26 x i32]* %5, i64 0, i64 0
  %24 = call i32 @max(i32* %23)
  store i32 %24, i32* %6, align 4
  %25 = load i32, i32* %6, align 4
  %26 = add nsw i32 %25, 65
  %27 = call i32 (i8*, ...) @printf(i8* getelementptr inbounds ([4 x i8], [4 x i8]* @.str.1, i64 0, i64 0), i32 %26)
  %28 = load i32, i32* %6, align 4
  %29 = sext i32 %28 to i64
  %30 = getelementptr inbounds [26 x i32], [26 x i32]* %5, i64 0, i64 %29
  %31 = load i32, i32* %30, align 4
  %32 = call i32 (i8*, ...) @printf(i8* getelementptr inbounds ([4 x i8], [4 x i8]* @.str.2, i64 0, i64 0), i32 %31)
  store i32 1, i32* %3, align 4
  br label %33

33:                                               ; preds = %49, %22
  %34 = load i32, i32* %3, align 4
  %35 = load i32, i32* %6, align 4
  %36 = sext i32 %35 to i64
  %37 = getelementptr inbounds [26 x i32], [26 x i32]* %5, i64 0, i64 %36
  %38 = load i32, i32* %37, align 4
  %39 = icmp sle i32 %34, %38
  br i1 %39, label %40, label %52

40:                                               ; preds = %33
  %41 = load i32, i32* %6, align 4
  %42 = sext i32 %41 to i64
  %43 = getelementptr inbounds [26 x [100 x i32]], [26 x [100 x i32]]* %4, i64 0, i64 %42
  %44 = load i32, i32* %3, align 4
  %45 = sext i32 %44 to i64
  %46 = getelementptr inbounds [100 x i32], [100 x i32]* %43, i64 0, i64 %45
  %47 = load i32, i32* %46, align 4
  %48 = call i32 (i8*, ...) @printf(i8* getelementptr inbounds ([4 x i8], [4 x i8]* @.str.2, i64 0, i64 0), i32 %47)
  br label %49

49:                                               ; preds = %40
  %50 = load i32, i32* %3, align 4
  %51 = add nsw i32 %50, 1
  store i32 %51, i32* %3, align 4
  br label %33

52:                                               ; preds = %33
  %53 = load i32, i32* %1, align 4
  ret i32 %53
}

; Function Attrs: argmemonly nounwind willreturn
declare void @llvm.memset.p0i8.i64(i8* nocapture writeonly, i8, i64, i1 immarg) #2

declare dso_local i32 @__isoc99_scanf(i8*, ...) #3

; Function Attrs: noinline nounwind uwtable
define dso_local void @put_names([100 x i32]* %0, i32* %1, i32 %2) #0 {
  %4 = alloca [100 x i32]*, align 8
  %5 = alloca i32*, align 8
  %6 = alloca i32, align 4
  %7 = alloca i8, align 1
  %8 = alloca i32, align 4
  %9 = alloca i32, align 4
  store [100 x i32]* %0, [100 x i32]** %4, align 8
  store i32* %1, i32** %5, align 8
  store i32 %2, i32* %6, align 4
  store i32 0, i32* %9, align 4
  br label %10

10:                                               ; preds = %3, %17
  %11 = call i32 @getchar()
  %12 = trunc i32 %11 to i8
  store i8 %12, i8* %7, align 1
  %13 = load i8, i8* %7, align 1
  %14 = sext i8 %13 to i32
  %15 = icmp ne i32 %14, 32
  br i1 %15, label %16, label %17

16:                                               ; preds = %10
  br label %18

17:                                               ; preds = %10
  br label %10

18:                                               ; preds = %16
  br label %19

19:                                               ; preds = %18, %46
  %20 = load i8, i8* %7, align 1
  %21 = call i32 @pro(i8 signext %20)
  store i32 %21, i32* %8, align 4
  %22 = load i32*, i32** %5, align 8
  %23 = load i32, i32* %8, align 4
  %24 = sext i32 %23 to i64
  %25 = getelementptr inbounds i32, i32* %22, i64 %24
  %26 = load i32, i32* %25, align 4
  %27 = add nsw i32 %26, 1
  store i32 %27, i32* %25, align 4
  %28 = load i32, i32* %6, align 4
  %29 = load [100 x i32]*, [100 x i32]** %4, align 8
  %30 = load i32, i32* %8, align 4
  %31 = sext i32 %30 to i64
  %32 = getelementptr inbounds [100 x i32], [100 x i32]* %29, i64 %31
  %33 = load i32*, i32** %5, align 8
  %34 = load i32, i32* %8, align 4
  %35 = sext i32 %34 to i64
  %36 = getelementptr inbounds i32, i32* %33, i64 %35
  %37 = load i32, i32* %36, align 4
  %38 = sext i32 %37 to i64
  %39 = getelementptr inbounds [100 x i32], [100 x i32]* %32, i64 0, i64 %38
  store i32 %28, i32* %39, align 4
  %40 = call i32 @getchar()
  %41 = trunc i32 %40 to i8
  store i8 %41, i8* %7, align 1
  %42 = load i8, i8* %7, align 1
  %43 = sext i8 %42 to i32
  %44 = icmp eq i32 %43, 10
  br i1 %44, label %45, label %46

45:                                               ; preds = %19
  br label %47

46:                                               ; preds = %19
  br label %19

47:                                               ; preds = %45
  ret void
}

; Function Attrs: noinline nounwind uwtable
define dso_local i32 @max(i32* %0) #0 {
  %2 = alloca i32*, align 8
  %3 = alloca i32, align 4
  %4 = alloca i32, align 4
  store i32* %0, i32** %2, align 8
  %5 = load i32*, i32** %2, align 8
  %6 = getelementptr inbounds i32, i32* %5, i64 0
  %7 = load i32, i32* %6, align 4
  store i32 %7, i32* %4, align 4
  store i32 0, i32* %3, align 4
  br label %8

8:                                                ; preds = %26, %1
  %9 = load i32, i32* %3, align 4
  %10 = icmp sle i32 %9, 25
  br i1 %10, label %11, label %29

11:                                               ; preds = %8
  %12 = load i32*, i32** %2, align 8
  %13 = load i32, i32* %3, align 4
  %14 = sext i32 %13 to i64
  %15 = getelementptr inbounds i32, i32* %12, i64 %14
  %16 = load i32, i32* %15, align 4
  %17 = load i32*, i32** %2, align 8
  %18 = load i32, i32* %4, align 4
  %19 = sext i32 %18 to i64
  %20 = getelementptr inbounds i32, i32* %17, i64 %19
  %21 = load i32, i32* %20, align 4
  %22 = icmp sgt i32 %16, %21
  br i1 %22, label %23, label %25

23:                                               ; preds = %11
  %24 = load i32, i32* %3, align 4
  store i32 %24, i32* %4, align 4
  br label %25

25:                                               ; preds = %23, %11
  br label %26

26:                                               ; preds = %25
  %27 = load i32, i32* %3, align 4
  %28 = add nsw i32 %27, 1
  store i32 %28, i32* %3, align 4
  br label %8

29:                                               ; preds = %8
  %30 = load i32, i32* %4, align 4
  ret i32 %30
}

declare dso_local i32 @printf(i8*, ...) #3

declare dso_local i32 @getchar() #3


!llvm.module.flags = !{!0}
!llvm.ident = !{!1}

!0 = !{i32 1, !"wchar_size", i32 4}
!1 = !{!"clang version 10.0.0-4ubuntu1 "}
